target datalayout = "e-m:e-p270:32:32-p271:32:32-p272:64:64-i64:64-i128:128-f80:128-n8:16:32:64-S128"
target triple = "x86_64-pc-linux-gnu"

; Function Attrs: nounwind uwtable
define dso_local i32 @PyThread_start_joinable_thread(ptr noundef %0, ptr noundef %1, ptr noundef %2, ptr noundef %3) #0 {
  %5 = alloca i32, align 4
  %6 = alloca ptr, align 8
  %7 = alloca ptr, align 8
  %8 = alloca ptr, align 8
  %9 = alloca ptr, align 8
  %10 = alloca i64, align 8
  %11 = alloca i32, align 4
  store ptr %0, ptr %6, align 8, !tbaa !176
  store ptr %1, ptr %7, align 8, !tbaa !176
  store ptr %2, ptr %8, align 8, !tbaa !182
  store ptr %3, ptr %9, align 8, !tbaa !184
  call void @llvm.lifetime.start.p0(i64 8, ptr %10) #11
  store i64 0, ptr %10, align 8, !tbaa !181
  %12 = load ptr, ptr %6, align 8, !tbaa !176
  %13 = load ptr, ptr %7, align 8, !tbaa !176
  %14 = call i32 @do_start_joinable_thread(ptr noundef %12, ptr noundef %13, ptr noundef %10)
  %15 = icmp ne i32 %14, 0
  br i1 %15, label %16, label %17

16:                                               ; preds = %4
  store i32 -1, ptr %5, align 4
  store i32 1, ptr %11, align 4
  br label %22

17:                                               ; preds = %4
  %18 = load i64, ptr %10, align 8, !tbaa !181
  %19 = load ptr, ptr %8, align 8, !tbaa !182
  store i64 %18, ptr %19, align 8, !tbaa !178
  %20 = load i64, ptr %10, align 8, !tbaa !181
  %21 = load ptr, ptr %9, align 8, !tbaa !184
  store i64 %20, ptr %21, align 8, !tbaa !181
  store i32 0, ptr %5, align 4
  store i32 1, ptr %11, align 4
  br label %22

22:                                               ; preds = %17, %16
  call void @llvm.lifetime.end.p0(i64 8, ptr %10) #11
  %23 = load i32, ptr %5, align 4
  ret i32 %23
}