; Function Attrs: nounwind uwtable
define dso_local range(i32 -1, 1) i32 @PyThread_start_joinable_thread(ptr noundef %0, ptr noundef %1, ptr noundef writeonly captures(none) %2, ptr noundef writeonly captures(none) %3) local_unnamed_addr #0 {
  %5 = alloca i64, align 8
  call void @llvm.lifetime.start.p0(i64 8, ptr nonnull %5) #13
  store i64 0, ptr %5, align 8, !tbaa !176
  %6 = call fastcc i32 @do_start_joinable_thread(ptr noundef %0, ptr noundef %1, ptr noundef %5)
  %.not = icmp eq i32 %6, 0
  br i1 %.not, label %7, label %9

7:                                                ; preds = %4
  %8 = load i64, ptr %5, align 8, !tbaa !176
  store i64 %8, ptr %2, align 8, !tbaa !177
  store i64 %8, ptr %3, align 8, !tbaa !176
  br label %9

9:                                                ; preds = %4, %7
  %.0 = phi i32 [ 0, %7 ], [ -1, %4 ]
  call void @llvm.lifetime.end.p0(i64 8, ptr nonnull %5) #13
  ret i32 %.0
}